; ModuleID = '56/2281.c'
source_filename = "56/2281.c"
target datalayout = "e-m:e-p270:32:32-p271:32:32-p272:64:64-i64:64-f80:128-n8:16:32:64-S128"
target triple = "x86_64-pc-linux-gnu"

@.str = private unnamed_addr constant [3 x i8] c"%s\00", align 1
@.str.1 = private unnamed_addr constant [3 x i8] c"%c\00", align 1

; Function Attrs: noinline nounwind uwtable
define dso_local i32 @main() #0 {
  %1 = alloca i32, align 4
  %2 = alloca [10 x i8], align 1
  %3 = alloca i8, align 1
  %4 = alloca i32, align 4
  %5 = alloca i32, align 4
  store i32 0, i32* %1, align 4
  %6 = getelementptr inbounds [10 x i8], [10 x i8]* %2, i64 0, i64 0
  %7 = call i32 (i8*, ...) @__isoc99_scanf(i8* getelementptr inbounds ([3 x i8], [3 x i8]* @.str, i64 0, i64 0), i8* %6)
  store i32 0, i32* %4, align 4
  br label %8

8:                                                ; preds = %41, %0
  %9 = load i32, i32* %4, align 4
  %10 = sitofp i32 %9 to double
  %11 = getelementptr inbounds [10 x i8], [10 x i8]* %2, i64 0, i64 0
  %12 = call i64 @strlen(i8* %11) #4
  %13 = udiv i64 %12, 2
  %14 = uitofp i64 %13 to double
  %15 = call double @llvm.floor.f64(double %14)
  %16 = fcmp olt double %10, %15
  br i1 %16, label %17, label %44

17:                                               ; preds = %8
  %18 = load i32, i32* %4, align 4
  %19 = sext i32 %18 to i64
  %20 = getelementptr inbounds [10 x i8], [10 x i8]* %2, i64 0, i64 %19
  %21 = load i8, i8* %20, align 1
  store i8 %21, i8* %3, align 1
  %22 = getelementptr inbounds [10 x i8], [10 x i8]* %2, i64 0, i64 0
  %23 = call i64 @strlen(i8* %22) #4
  %24 = load i32, i32* %4, align 4
  %25 = sext i32 %24 to i64
  %26 = sub i64 %23, %25
  %27 = sub i64 %26, 1
  %28 = getelementptr inbounds [10 x i8], [10 x i8]* %2, i64 0, i64 %27
  %29 = load i8, i8* %28, align 1
  %30 = load i32, i32* %4, align 4
  %31 = sext i32 %30 to i64
  %32 = getelementptr inbounds [10 x i8], [10 x i8]* %2, i64 0, i64 %31
  store i8 %29, i8* %32, align 1
  %33 = load i8, i8* %3, align 1
  %34 = getelementptr inbounds [10 x i8], [10 x i8]* %2, i64 0, i64 0
  %35 = call i64 @strlen(i8* %34) #4
  %36 = load i32, i32* %4, align 4
  %37 = sext i32 %36 to i64
  %38 = sub i64 %35, %37
  %39 = sub i64 %38, 1
  %40 = getelementptr inbounds [10 x i8], [10 x i8]* %2, i64 0, i64 %39
  store i8 %33, i8* %40, align 1
  br label %41

41:                                               ; preds = %17
  %42 = load i32, i32* %4, align 4
  %43 = add nsw i32 %42, 1
  store i32 %43, i32* %4, align 4
  br label %8

44:                                               ; preds = %8
  store i32 0, i32* %4, align 4
  br label %45

45:                                               ; preds = %58, %44
  %46 = load i32, i32* %4, align 4
  %47 = sext i32 %46 to i64
  %48 = getelementptr inbounds [10 x i8], [10 x i8]* %2, i64 0, i64 0
  %49 = call i64 @strlen(i8* %48) #4
  %50 = icmp ult i64 %47, %49
  br i1 %50, label %51, label %61

51:                                               ; preds = %45
  %52 = load i32, i32* %4, align 4
  %53 = sext i32 %52 to i64
  %54 = getelementptr inbounds [10 x i8], [10 x i8]* %2, i64 0, i64 %53
  %55 = load i8, i8* %54, align 1
  %56 = sext i8 %55 to i32
  %57 = call i32 (i8*, ...) @printf(i8* getelementptr inbounds ([3 x i8], [3 x i8]* @.str.1, i64 0, i64 0), i32 %56)
  br label %58

58:                                               ; preds = %51
  %59 = load i32, i32* %4, align 4
  %60 = add nsw i32 %59, 1
  store i32 %60, i32* %4, align 4
  br label %45

61:                                               ; preds = %45
  ret i32 0
}

declare dso_local i32 @__isoc99_scanf(i8*, ...) #1

; Function Attrs: nounwind readonly
declare dso_local i64 @strlen(i8*) #2

; Function Attrs: nounwind readnone speculatable willreturn
declare double @llvm.floor.f64(double) #3

declare dso_local i32 @printf(i8*, ...) #1


!llvm.module.flags = !{!0}
!llvm.ident = !{!1}

!0 = !{i32 1, !"wchar_size", i32 4}
!1 = !{!"clang version 10.0.0-4ubuntu1 "}
